target datalayout = "e-m:e-p270:32:32-p271:32:32-p272:64:64-i64:64-i128:128-f80:128-n8:16:32:64-S128"
target triple = "x86_64-pc-linux-gnu"

%struct._zend_libxml_globals = type { %struct._zval_struct, %struct.smart_str, ptr, %struct._zend_fcall_info_cache, i8 }
%struct._zval_struct = type { %union._zend_value, %union.anon, %union.anon.2 }
%union._zend_value = type { i64 }
%union.anon = type { i32 }
%union.anon.2 = type { i32 }
%struct.smart_str = type { ptr, i64 }
%struct._zend_fcall_info_cache = type { ptr, ptr, ptr, ptr, ptr }

@libxml_globals = internal global %struct._zend_libxml_globals zeroinitializer, align 8

; Function Attrs: nounwind uwtable
define void @php_libxml_switch_context(ptr noundef %0, ptr noundef %1) #0 {
  %3 = alloca ptr, align 8
  %4 = alloca ptr, align 8
  %5 = alloca ptr, align 8
  %6 = alloca ptr, align 8
  %7 = alloca ptr, align 8
  %8 = alloca i32, align 4
  %9 = alloca ptr, align 8
  %10 = alloca ptr, align 8
  %11 = alloca ptr, align 8
  %12 = alloca i32, align 4
  store ptr %0, ptr %3, align 8
  store ptr %1, ptr %4, align 8
  %13 = load ptr, ptr %4, align 8
  %14 = icmp ne ptr %13, null
  br i1 %14, label %15, label %33

15:                                               ; preds = %2
  br label %16

16:                                               ; preds = %15
  %17 = load ptr, ptr %4, align 8
  store ptr %17, ptr %5, align 8
  store ptr @libxml_globals, ptr %6, align 8
  %18 = load ptr, ptr %6, align 8
  %19 = getelementptr inbounds %struct._zval_struct, ptr %18, i32 0, i32 0
  %20 = load ptr, ptr %19, align 8
  store ptr %20, ptr %7, align 8
  %21 = load ptr, ptr %6, align 8
  %22 = getelementptr inbounds %struct._zval_struct, ptr %21, i32 0, i32 1
  %23 = load i32, ptr %22, align 8
  store i32 %23, ptr %8, align 4
  br label %24

24:                                               ; preds = %16
  %25 = load ptr, ptr %7, align 8
  %26 = load ptr, ptr %5, align 8
  %27 = getelementptr inbounds %struct._zval_struct, ptr %26, i32 0, i32 0
  store ptr %25, ptr %27, align 8
  %28 = load i32, ptr %8, align 4
  %29 = load ptr, ptr %5, align 8
  %30 = getelementptr inbounds %struct._zval_struct, ptr %29, i32 0, i32 1
  store i32 %28, ptr %30, align 8
  br label %31

31:                                               ; preds = %24
  br label %32

32:                                               ; preds = %31
  br label %33

33:                                               ; preds = %32, %2
  %34 = load ptr, ptr %3, align 8
  %35 = icmp ne ptr %34, null
  br i1 %35, label %36, label %54

36:                                               ; preds = %33
  br label %37

37:                                               ; preds = %36
  store ptr @libxml_globals, ptr %9, align 8
  %38 = load ptr, ptr %3, align 8
  store ptr %38, ptr %10, align 8
  %39 = load ptr, ptr %10, align 8
  %40 = getelementptr inbounds %struct._zval_struct, ptr %39, i32 0, i32 0
  %41 = load ptr, ptr %40, align 8
  store ptr %41, ptr %11, align 8
  %42 = load ptr, ptr %10, align 8
  %43 = getelementptr inbounds %struct._zval_struct, ptr %42, i32 0, i32 1
  %44 = load i32, ptr %43, align 8
  store i32 %44, ptr %12, align 4
  br label %45

45:                                               ; preds = %37
  %46 = load ptr, ptr %11, align 8
  %47 = load ptr, ptr %9, align 8
  %48 = getelementptr inbounds %struct._zval_struct, ptr %47, i32 0, i32 0
  store ptr %46, ptr %48, align 8
  %49 = load i32, ptr %12, align 4
  %50 = load ptr, ptr %9, align 8
  %51 = getelementptr inbounds %struct._zval_struct, ptr %50, i32 0, i32 1
  store i32 %49, ptr %51, align 8
  br label %52

52:                                               ; preds = %45
  br label %53

53:                                               ; preds = %52
  br label %54

54:                                               ; preds = %53, %33
  ret void
}