; Function Attrs: mustprogress nofree norecurse nosync nounwind willreturn memory(readwrite, inaccessiblemem: none) uwtable
define void @php_libxml_switch_context(ptr noundef readonly %0, ptr noundef writeonly %1) local_unnamed_addr #6 {
  %.not = icmp eq ptr %1, null
  br i1 %.not, label %7, label %3

3:                                                ; preds = %2
  %4 = load ptr, ptr @libxml_globals, align 8
  %5 = load i32, ptr getelementptr inbounds (%struct._zend_libxml_globals, ptr @libxml_globals, i64 0, i32 0, i32 1), align 8
  store ptr %4, ptr %1, align 8
  %6 = getelementptr inbounds i8, ptr %1, i64 8
  store i32 %5, ptr %6, align 8
  br label %7

7:                                                ; preds = %3, %2
  %.not16 = icmp eq ptr %0, null
  br i1 %.not16, label %12, label %8

8:                                                ; preds = %7
  %9 = load ptr, ptr %0, align 8
  %10 = getelementptr inbounds i8, ptr %0, i64 8
  %11 = load i32, ptr %10, align 8
  store ptr %9, ptr @libxml_globals, align 8
  store i32 %11, ptr getelementptr inbounds (%struct._zend_libxml_globals, ptr @libxml_globals, i64 0, i32 0, i32 1), align 8
  br label %12

12:                                               ; preds = %8, %7
  ret void
}